; Function Attrs: nofree norecurse nosync nounwind memory(write, argmem: readwrite, inaccessiblemem: none) uwtable
define internal void @Ppmd7_Init(ptr noundef captures(none) initializes((0, 28), (32, 40), (44, 52), (56, 60), (72, 104), (276, 428)) %0, i32 noundef %1) #2 {
  %3 = getelementptr inbounds nuw i8, ptr %0, i64 36
  store i32 %1, ptr %3, align 4, !tbaa !22
  tail call fastcc void @RestartModel(ptr noundef %0)
  %4 = getelementptr inbounds nuw i8, ptr %0, i64 1196
  %5 = getelementptr inbounds nuw i8, ptr %0, i64 1198
  store i8 7, ptr %5, align 2, !tbaa !23
  store i16 0, ptr %4, align 4, !tbaa !24
  %6 = getelementptr inbounds nuw i8, ptr %0, i64 1199
  store i8 64, ptr %6, align 1, !tbaa !25
  ret void
}